target datalayout = "e-m:e-p270:32:32-p271:32:32-p272:64:64-i64:64-i128:128-f80:128-n8:16:32:64-S128"
target triple = "x86_64-pc-linux-gnu"

%struct.ibf_dump = type { ptr, %struct.ibf_dump_buffer, ptr }
%struct.ibf_dump_buffer = type { i64, ptr }

; Function Attrs: nounwind sspstrong uwtable
define internal void @ibf_dump_mark(ptr noundef %0) #0 {
  %2 = alloca ptr, align 8
  %3 = alloca ptr, align 8
  store ptr %0, ptr %2, align 8, !tbaa !152
  call void @llvm.lifetime.start.p0(i64 8, ptr %3) #31
  %4 = load ptr, ptr %2, align 8, !tbaa !152
  store ptr %4, ptr %3, align 8, !tbaa !221
  %5 = load ptr, ptr %3, align 8, !tbaa !221
  %6 = getelementptr inbounds nuw %struct.ibf_dump, ptr %5, i32 0, i32 1
  %7 = getelementptr inbounds nuw %struct.ibf_dump_buffer, ptr %6, i32 0, i32 0
  %8 = load i64, ptr %7, align 8, !tbaa !230
  call void @rb_gc_mark(i64 noundef %8)
  %9 = load ptr, ptr %3, align 8, !tbaa !221
  %10 = getelementptr inbounds nuw %struct.ibf_dump, ptr %9, i32 0, i32 1
  %11 = getelementptr inbounds nuw %struct.ibf_dump_buffer, ptr %10, i32 0, i32 1
  %12 = load ptr, ptr %11, align 8, !tbaa !235
  call void @rb_mark_set(ptr noundef %12)
  %13 = load ptr, ptr %3, align 8, !tbaa !221
  %14 = getelementptr inbounds nuw %struct.ibf_dump, ptr %13, i32 0, i32 0
  %15 = load ptr, ptr %14, align 8, !tbaa !236
  call void @rb_mark_set(ptr noundef %15)
  call void @llvm.lifetime.end.p0(i64 8, ptr %3) #31
  ret void
}