; Function Attrs: nounwind sspstrong uwtable
define internal void @ibf_dump_mark(ptr noundef readonly captures(none) %0) #1 {
  %2 = getelementptr inbounds nuw i8, ptr %0, i64 8
  %3 = load i64, ptr %2, align 8, !tbaa !328
  tail call void @rb_gc_mark(i64 noundef %3) #38
  %4 = getelementptr inbounds nuw i8, ptr %0, i64 16
  %5 = load ptr, ptr %4, align 8, !tbaa !302
  tail call void @rb_mark_set(ptr noundef %5) #38
  %6 = load ptr, ptr %0, align 8, !tbaa !306
  tail call void @rb_mark_set(ptr noundef %6) #38
  ret void
}